; Function Attrs: nounwind uwtable
define dso_local void @strbuf_attach(ptr noundef captures(none) initializes((8, 16)) %0, ptr noundef %1, i64 noundef %2, i64 noundef %3) local_unnamed_addr #3 {
  %5 = load i64, ptr %0, align 8, !tbaa !15
  %.not.i = icmp eq i64 %5, 0
  br i1 %.not.i, label %strbuf_release.exit, label %6

6:                                                ; preds = %4
  %7 = getelementptr inbounds nuw i8, ptr %0, i64 16
  %8 = load ptr, ptr %7, align 8, !tbaa !12
  tail call void @free(ptr noundef %8) #25
  br label %strbuf_release.exit

strbuf_release.exit:                              ; preds = %4, %6
  %9 = getelementptr inbounds nuw i8, ptr %0, i64 16
  store ptr %1, ptr %9, align 8, !tbaa !12
  %10 = getelementptr inbounds nuw i8, ptr %0, i64 8
  store i64 %2, ptr %10, align 8, !tbaa !16
  store i64 %3, ptr %0, align 8, !tbaa !15
  %.not.i9 = icmp eq i64 %3, 0
  %11 = icmp eq i64 %2, -1
  br i1 %11, label %12, label %13

12:                                               ; preds = %strbuf_release.exit
  tail call void (ptr, ...) @die(ptr noundef nonnull @.str) #24
  unreachable

13:                                               ; preds = %strbuf_release.exit
  br i1 %.not.i9, label %14, label %15

14:                                               ; preds = %13
  store ptr null, ptr %9, align 8, !tbaa !12
  br label %15

15:                                               ; preds = %14, %13
  %16 = phi ptr [ null, %14 ], [ %1, %13 ]
  %.not = icmp ult i64 %2, %3
  br i1 %.not, label %strbuf_grow.exit, label %17

17:                                               ; preds = %15
  %18 = add nuw i64 %2, 1
  %19 = mul i64 %3, 3
  %20 = add i64 %19, 48
  %21 = lshr i64 %20, 1
  %..i = tail call i64 @llvm.umax.i64(i64 %21, i64 %18)
  store i64 %..i, ptr %0, align 8, !tbaa !15
  %22 = tail call ptr @xrealloc(ptr noundef %16, i64 noundef %..i) #25
  store ptr %22, ptr %9, align 8, !tbaa !12
  br i1 %.not.i9, label %23, label %strbuf_grow.exit

23:                                               ; preds = %17
  store i8 0, ptr %22, align 1, !tbaa !4
  %.pre = load ptr, ptr %9, align 8, !tbaa !12
  br label %strbuf_grow.exit

strbuf_grow.exit:                                 ; preds = %15, %17, %23
  %24 = phi ptr [ %16, %15 ], [ %22, %17 ], [ %.pre, %23 ]
  %25 = load i64, ptr %10, align 8, !tbaa !16
  %26 = getelementptr inbounds nuw i8, ptr %24, i64 %25
  store i8 0, ptr %26, align 1, !tbaa !4
  ret void
}